target datalayout = "e-m:e-p270:32:32-p271:32:32-p272:64:64-i64:64-i128:128-f80:128-n8:16:32:64-S128"
target triple = "x86_64-pc-linux-gnu"

%struct.b2Vec2 = type { float, float }
%struct.b2Transform = type { %struct.b2Vec2, %struct.b2Rot }
%struct.b2Rot = type { float, float }
%struct.b2RayCastInput = type { %struct.b2Vec2, %struct.b2Vec2, float }
%struct.b2Polygon = type { [8 x %struct.b2Vec2], [8 x %struct.b2Vec2], %struct.b2Vec2, float, i32 }
%struct.b2ShapeProxy = type { [8 x %struct.b2Vec2], i32, float }
%struct.b2CastOutput = type { %struct.b2Vec2, %struct.b2Vec2, float, i32, i8 }
%struct.b2ShapeCastPairInput = type { %struct.b2ShapeProxy, %struct.b2ShapeProxy, %struct.b2Transform, %struct.b2Transform, %struct.b2Vec2, float }

@b2Transform_identity = internal constant %struct.b2Transform { %struct.b2Vec2 zeroinitializer, %struct.b2Rot { float 1.000000e+00, float 0.000000e+00 } }, align 4

; Function Attrs: inlinehint nounwind uwtable
define internal <2 x float> @b2MulAdd(<2 x float> %0, float noundef %1, <2 x float> %2) #6 {
  %4 = alloca %struct.b2Vec2, align 4
  %5 = alloca %struct.b2Vec2, align 4
  %6 = alloca %struct.b2Vec2, align 4
  %7 = alloca float, align 4
  store <2 x float> %0, ptr %5, align 4
  store <2 x float> %2, ptr %6, align 4
  store float %1, ptr %7, align 4, !tbaa !12
  %8 = getelementptr inbounds nuw %struct.b2Vec2, ptr %4, i32 0, i32 0
  %9 = getelementptr inbounds nuw %struct.b2Vec2, ptr %5, i32 0, i32 0
  %10 = load float, ptr %9, align 4, !tbaa !30
  %11 = load float, ptr %7, align 4, !tbaa !12
  %12 = getelementptr inbounds nuw %struct.b2Vec2, ptr %6, i32 0, i32 0
  %13 = load float, ptr %12, align 4, !tbaa !30
  %14 = fmul float %11, %13
  %15 = fadd float %10, %14
  store float %15, ptr %8, align 4, !tbaa !30
  %16 = getelementptr inbounds nuw %struct.b2Vec2, ptr %4, i32 0, i32 1
  %17 = getelementptr inbounds nuw %struct.b2Vec2, ptr %5, i32 0, i32 1
  %18 = load float, ptr %17, align 4, !tbaa !31
  %19 = load float, ptr %7, align 4, !tbaa !12
  %20 = getelementptr inbounds nuw %struct.b2Vec2, ptr %6, i32 0, i32 1
  %21 = load float, ptr %20, align 4, !tbaa !31
  %22 = fmul float %19, %21
  %23 = fadd float %18, %22
  store float %23, ptr %16, align 4, !tbaa !31
  %24 = load <2 x float>, ptr %4, align 4
  ret <2 x float> %24
}

; Function Attrs: inlinehint nounwind uwtable
define internal float @b2Dot(<2 x float> %0, <2 x float> %1) #6 {
  %3 = alloca %struct.b2Vec2, align 4
  %4 = alloca %struct.b2Vec2, align 4
  store <2 x float> %0, ptr %3, align 4
  store <2 x float> %1, ptr %4, align 4
  %5 = getelementptr inbounds nuw %struct.b2Vec2, ptr %3, i32 0, i32 0
  %6 = load float, ptr %5, align 4, !tbaa !30
  %7 = getelementptr inbounds nuw %struct.b2Vec2, ptr %4, i32 0, i32 0
  %8 = load float, ptr %7, align 4, !tbaa !30
  %9 = fmul float %6, %8
  %10 = getelementptr inbounds nuw %struct.b2Vec2, ptr %3, i32 0, i32 1
  %11 = load float, ptr %10, align 4, !tbaa !31
  %12 = getelementptr inbounds nuw %struct.b2Vec2, ptr %4, i32 0, i32 1
  %13 = load float, ptr %12, align 4, !tbaa !31
  %14 = fmul float %11, %13
  %15 = fadd float %9, %14
  ret float %15
}

; Function Attrs: inlinehint nounwind uwtable
define internal <2 x float> @b2Sub(<2 x float> %0, <2 x float> %1) #6 {
  %3 = alloca %struct.b2Vec2, align 4
  %4 = alloca %struct.b2Vec2, align 4
  %5 = alloca %struct.b2Vec2, align 4
  store <2 x float> %0, ptr %4, align 4
  store <2 x float> %1, ptr %5, align 4
  %6 = getelementptr inbounds nuw %struct.b2Vec2, ptr %3, i32 0, i32 0
  %7 = getelementptr inbounds nuw %struct.b2Vec2, ptr %4, i32 0, i32 0
  %8 = load float, ptr %7, align 4, !tbaa !30
  %9 = getelementptr inbounds nuw %struct.b2Vec2, ptr %5, i32 0, i32 0
  %10 = load float, ptr %9, align 4, !tbaa !30
  %11 = fsub float %8, %10
  store float %11, ptr %6, align 4, !tbaa !30
  %12 = getelementptr inbounds nuw %struct.b2Vec2, ptr %3, i32 0, i32 1
  %13 = getelementptr inbounds nuw %struct.b2Vec2, ptr %4, i32 0, i32 1
  %14 = load float, ptr %13, align 4, !tbaa !31
  %15 = getelementptr inbounds nuw %struct.b2Vec2, ptr %5, i32 0, i32 1
  %16 = load float, ptr %15, align 4, !tbaa !31
  %17 = fsub float %14, %16
  store float %17, ptr %12, align 4, !tbaa !31
  %18 = load <2 x float>, ptr %3, align 4
  ret <2 x float> %18
}

; Function Attrs: nounwind uwtable
define void @b2RayCastPolygon(ptr dead_on_unwind noalias writable sret(%struct.b2CastOutput) align 4 %0, ptr noundef %1, ptr noundef %2) #0 {
  %4 = alloca ptr, align 8
  %5 = alloca ptr, align 8
  %6 = alloca %struct.b2Vec2, align 4
  %7 = alloca %struct.b2Vec2, align 4
  %8 = alloca float, align 4
  %9 = alloca float, align 4
  %10 = alloca i32, align 4
  %11 = alloca i32, align 4
  %12 = alloca i32, align 4
  %13 = alloca float, align 4
  %14 = alloca %struct.b2Vec2, align 4
  %15 = alloca float, align 4
  %16 = alloca %struct.b2Vec2, align 4
  %17 = alloca %struct.b2ShapeCastPairInput, align 4
  %18 = alloca %struct.b2ShapeProxy, align 4
  %19 = alloca %struct.b2ShapeProxy, align 4
  store ptr %1, ptr %4, align 8, !tbaa !3
  store ptr %2, ptr %5, align 8, !tbaa !45
  %20 = load ptr, ptr %5, align 8, !tbaa !45
  %21 = getelementptr inbounds nuw %struct.b2Polygon, ptr %20, i32 0, i32 3
  %22 = load float, ptr %21, align 4, !tbaa !24
  %23 = fcmp oeq float %22, 0.000000e+00
  br i1 %23, label %24, label %134

24:                                               ; preds = %3
  call void @llvm.lifetime.start.p0(i64 8, ptr %6) #9
  %25 = load ptr, ptr %4, align 8, !tbaa !3
  %26 = getelementptr inbounds nuw %struct.b2RayCastInput, ptr %25, i32 0, i32 0
  call void @llvm.memcpy.p0.p0.i64(ptr align 4 %6, ptr align 4 %26, i64 8, i1 false), !tbaa.struct !26
  call void @llvm.lifetime.start.p0(i64 8, ptr %7) #9
  %27 = load ptr, ptr %4, align 8, !tbaa !3
  %28 = getelementptr inbounds nuw %struct.b2RayCastInput, ptr %27, i32 0, i32 1
  call void @llvm.memcpy.p0.p0.i64(ptr align 4 %7, ptr align 4 %28, i64 8, i1 false), !tbaa.struct !26
  call void @llvm.lifetime.start.p0(i64 4, ptr %8) #9
  store float 0.000000e+00, ptr %8, align 4, !tbaa !12
  call void @llvm.lifetime.start.p0(i64 4, ptr %9) #9
  %29 = load ptr, ptr %4, align 8, !tbaa !3
  %30 = getelementptr inbounds nuw %struct.b2RayCastInput, ptr %29, i32 0, i32 2
  %31 = load float, ptr %30, align 4, !tbaa !8
  store float %31, ptr %9, align 4, !tbaa !12
  call void @llvm.lifetime.start.p0(i64 4, ptr %10) #9
  store i32 -1, ptr %10, align 4, !tbaa !25
  call void @llvm.memset.p0.i64(ptr align 4 %0, i8 0, i64 28, i1 false)
  call void @llvm.lifetime.start.p0(i64 4, ptr %11) #9
  store i32 0, ptr %11, align 4, !tbaa !25
  br label %32

32:                                               ; preds = %109, %24
  %33 = load i32, ptr %11, align 4, !tbaa !25
  %34 = load ptr, ptr %5, align 8, !tbaa !45
  %35 = getelementptr inbounds nuw %struct.b2Polygon, ptr %34, i32 0, i32 4
  %36 = load i32, ptr %35, align 4, !tbaa !22
  %37 = icmp slt i32 %33, %36
  br i1 %37, label %39, label %38

38:                                               ; preds = %32
  store i32 2, ptr %12, align 4
  br label %112

39:                                               ; preds = %32
  call void @llvm.lifetime.start.p0(i64 4, ptr %13) #9
  %40 = load ptr, ptr %5, align 8, !tbaa !45
  %41 = getelementptr inbounds nuw %struct.b2Polygon, ptr %40, i32 0, i32 1
  %42 = load i32, ptr %11, align 4, !tbaa !25
  %43 = sext i32 %42 to i64
  %44 = getelementptr inbounds [8 x %struct.b2Vec2], ptr %41, i64 0, i64 %43
  %45 = load ptr, ptr %5, align 8, !tbaa !45
  %46 = getelementptr inbounds nuw %struct.b2Polygon, ptr %45, i32 0, i32 0
  %47 = load i32, ptr %11, align 4, !tbaa !25
  %48 = sext i32 %47 to i64
  %49 = getelementptr inbounds [8 x %struct.b2Vec2], ptr %46, i64 0, i64 %48
  %50 = load <2 x float>, ptr %49, align 4
  %51 = load <2 x float>, ptr %6, align 4
  %52 = call <2 x float> @b2Sub(<2 x float> %50, <2 x float> %51)
  store <2 x float> %52, ptr %14, align 4
  %53 = load <2 x float>, ptr %44, align 4
  %54 = load <2 x float>, ptr %14, align 4
  %55 = call float @b2Dot(<2 x float> %53, <2 x float> %54)
  store float %55, ptr %13, align 4, !tbaa !12
  call void @llvm.lifetime.start.p0(i64 4, ptr %15) #9
  %56 = load ptr, ptr %5, align 8, !tbaa !45
  %57 = getelementptr inbounds nuw %struct.b2Polygon, ptr %56, i32 0, i32 1
  %58 = load i32, ptr %11, align 4, !tbaa !25
  %59 = sext i32 %58 to i64
  %60 = getelementptr inbounds [8 x %struct.b2Vec2], ptr %57, i64 0, i64 %59
  %61 = load <2 x float>, ptr %60, align 4
  %62 = load <2 x float>, ptr %7, align 4
  %63 = call float @b2Dot(<2 x float> %61, <2 x float> %62)
  store float %63, ptr %15, align 4, !tbaa !12
  %64 = load float, ptr %15, align 4, !tbaa !12
  %65 = fcmp oeq float %64, 0.000000e+00
  br i1 %65, label %66, label %71

66:                                               ; preds = %39
  %67 = load float, ptr %13, align 4, !tbaa !12
  %68 = fcmp olt float %67, 0.000000e+00
  br i1 %68, label %69, label %70

69:                                               ; preds = %66
  store i32 1, ptr %12, align 4
  br label %106

70:                                               ; preds = %66
  br label %100

71:                                               ; preds = %39
  %72 = load float, ptr %15, align 4, !tbaa !12
  %73 = fcmp olt float %72, 0.000000e+00
  br i1 %73, label %74, label %85

74:                                               ; preds = %71
  %75 = load float, ptr %13, align 4, !tbaa !12
  %76 = load float, ptr %8, align 4, !tbaa !12
  %77 = load float, ptr %15, align 4, !tbaa !12
  %78 = fmul float %76, %77
  %79 = fcmp olt float %75, %78
  br i1 %79, label %80, label %85

80:                                               ; preds = %74
  %81 = load float, ptr %13, align 4, !tbaa !12
  %82 = load float, ptr %15, align 4, !tbaa !12
  %83 = fdiv float %81, %82
  store float %83, ptr %8, align 4, !tbaa !12
  %84 = load i32, ptr %11, align 4, !tbaa !25
  store i32 %84, ptr %10, align 4, !tbaa !25
  br label %99

85:                                               ; preds = %74, %71
  %86 = load float, ptr %15, align 4, !tbaa !12
  %87 = fcmp ogt float %86, 0.000000e+00
  br i1 %87, label %88, label %98

88:                                               ; preds = %85
  %89 = load float, ptr %13, align 4, !tbaa !12
  %90 = load float, ptr %9, align 4, !tbaa !12
  %91 = load float, ptr %15, align 4, !tbaa !12
  %92 = fmul float %90, %91
  %93 = fcmp olt float %89, %92
  br i1 %93, label %94, label %98

94:                                               ; preds = %88
  %95 = load float, ptr %13, align 4, !tbaa !12
  %96 = load float, ptr %15, align 4, !tbaa !12
  %97 = fdiv float %95, %96
  store float %97, ptr %9, align 4, !tbaa !12
  br label %98

98:                                               ; preds = %94, %88, %85
  br label %99

99:                                               ; preds = %98, %80
  br label %100

100:                                              ; preds = %99, %70
  %101 = load float, ptr %9, align 4, !tbaa !12
  %102 = load float, ptr %8, align 4, !tbaa !12
  %103 = fcmp olt float %101, %102
  br i1 %103, label %104, label %105

104:                                              ; preds = %100
  store i32 1, ptr %12, align 4
  br label %106

105:                                              ; preds = %100
  store i32 0, ptr %12, align 4
  br label %106

106:                                              ; preds = %105, %104, %69
  call void @llvm.lifetime.end.p0(i64 4, ptr %15) #9
  call void @llvm.lifetime.end.p0(i64 4, ptr %13) #9
  %107 = load i32, ptr %12, align 4
  switch i32 %107, label %112 [
    i32 0, label %108
  ]

108:                                              ; preds = %106
  br label %109

109:                                              ; preds = %108
  %110 = load i32, ptr %11, align 4, !tbaa !25
  %111 = add nsw i32 %110, 1
  store i32 %111, ptr %11, align 4, !tbaa !25
  br label %32, !llvm.loop !82

112:                                              ; preds = %106, %38
  call void @llvm.lifetime.end.p0(i64 4, ptr %11) #9
  %113 = load i32, ptr %12, align 4
  switch i32 %113, label %133 [
    i32 2, label %114
  ]

114:                                              ; preds = %112
  %115 = load i32, ptr %10, align 4, !tbaa !25
  %116 = icmp sge i32 %115, 0
  br i1 %116, label %117, label %132

117:                                              ; preds = %114
  %118 = load float, ptr %8, align 4, !tbaa !12
  %119 = getelementptr inbounds nuw %struct.b2CastOutput, ptr %0, i32 0, i32 2
  store float %118, ptr %119, align 4, !tbaa !76
  %120 = getelementptr inbounds nuw %struct.b2CastOutput, ptr %0, i32 0, i32 0
  %121 = load ptr, ptr %5, align 8, !tbaa !45
  %122 = getelementptr inbounds nuw %struct.b2Polygon, ptr %121, i32 0, i32 1
  %123 = load i32, ptr %10, align 4, !tbaa !25
  %124 = sext i32 %123 to i64
  %125 = getelementptr inbounds [8 x %struct.b2Vec2], ptr %122, i64 0, i64 %124
  call void @llvm.memcpy.p0.p0.i64(ptr align 4 %120, ptr align 4 %125, i64 8, i1 false), !tbaa.struct !26
  %126 = getelementptr inbounds nuw %struct.b2CastOutput, ptr %0, i32 0, i32 1
  call void @llvm.lifetime.start.p0(i64 8, ptr %16) #9
  %127 = load float, ptr %8, align 4, !tbaa !12
  %128 = load <2 x float>, ptr %6, align 4
  %129 = load <2 x float>, ptr %7, align 4
  %130 = call <2 x float> @b2MulAdd(<2 x float> %128, float noundef %127, <2 x float> %129)
  store <2 x float> %130, ptr %16, align 4
  call void @llvm.memcpy.p0.p0.i64(ptr align 4 %126, ptr align 4 %16, i64 8, i1 false), !tbaa.struct !26
  call void @llvm.lifetime.end.p0(i64 8, ptr %16) #9
  %131 = getelementptr inbounds nuw %struct.b2CastOutput, ptr %0, i32 0, i32 4
  store i8 1, ptr %131, align 4, !tbaa !78
  br label %132

132:                                              ; preds = %117, %114
  store i32 1, ptr %12, align 4
  br label %133

133:                                              ; preds = %132, %112
  call void @llvm.lifetime.end.p0(i64 4, ptr %10) #9
  call void @llvm.lifetime.end.p0(i64 4, ptr %9) #9
  call void @llvm.lifetime.end.p0(i64 4, ptr %8) #9
  call void @llvm.lifetime.end.p0(i64 8, ptr %7) #9
  call void @llvm.lifetime.end.p0(i64 8, ptr %6) #9
  br label %157

134:                                              ; preds = %3
  call void @llvm.lifetime.start.p0(i64 188, ptr %17) #9
  %135 = getelementptr inbounds nuw %struct.b2ShapeCastPairInput, ptr %17, i32 0, i32 0
  call void @llvm.lifetime.start.p0(i64 72, ptr %18) #9
  %136 = load ptr, ptr %5, align 8, !tbaa !45
  %137 = getelementptr inbounds nuw %struct.b2Polygon, ptr %136, i32 0, i32 0
  %138 = getelementptr inbounds [8 x %struct.b2Vec2], ptr %137, i64 0, i64 0
  %139 = load ptr, ptr %5, align 8, !tbaa !45
  %140 = getelementptr inbounds nuw %struct.b2Polygon, ptr %139, i32 0, i32 4
  %141 = load i32, ptr %140, align 4, !tbaa !22
  %142 = load ptr, ptr %5, align 8, !tbaa !45
  %143 = getelementptr inbounds nuw %struct.b2Polygon, ptr %142, i32 0, i32 3
  %144 = load float, ptr %143, align 4, !tbaa !24
  call void @b2MakeProxy(ptr dead_on_unwind writable sret(%struct.b2ShapeProxy) align 4 %18, ptr noundef %138, i32 noundef %141, float noundef %144)
  call void @llvm.memcpy.p0.p0.i64(ptr align 4 %135, ptr align 4 %18, i64 72, i1 false), !tbaa.struct !69
  call void @llvm.lifetime.end.p0(i64 72, ptr %18) #9
  %145 = getelementptr inbounds nuw %struct.b2ShapeCastPairInput, ptr %17, i32 0, i32 1
  call void @llvm.lifetime.start.p0(i64 72, ptr %19) #9
  %146 = load ptr, ptr %4, align 8, !tbaa !3
  %147 = getelementptr inbounds nuw %struct.b2RayCastInput, ptr %146, i32 0, i32 0
  call void @b2MakeProxy(ptr dead_on_unwind writable sret(%struct.b2ShapeProxy) align 4 %19, ptr noundef %147, i32 noundef 1, float noundef 0.000000e+00)
  call void @llvm.memcpy.p0.p0.i64(ptr align 4 %145, ptr align 4 %19, i64 72, i1 false), !tbaa.struct !69
  call void @llvm.lifetime.end.p0(i64 72, ptr %19) #9
  %148 = getelementptr inbounds nuw %struct.b2ShapeCastPairInput, ptr %17, i32 0, i32 2
  call void @llvm.memcpy.p0.p0.i64(ptr align 4 %148, ptr align 4 @b2Transform_identity, i64 16, i1 false), !tbaa.struct !70
  %149 = getelementptr inbounds nuw %struct.b2ShapeCastPairInput, ptr %17, i32 0, i32 3
  call void @llvm.memcpy.p0.p0.i64(ptr align 4 %149, ptr align 4 @b2Transform_identity, i64 16, i1 false), !tbaa.struct !70
  %150 = getelementptr inbounds nuw %struct.b2ShapeCastPairInput, ptr %17, i32 0, i32 4
  %151 = load ptr, ptr %4, align 8, !tbaa !3
  %152 = getelementptr inbounds nuw %struct.b2RayCastInput, ptr %151, i32 0, i32 1
  call void @llvm.memcpy.p0.p0.i64(ptr align 4 %150, ptr align 4 %152, i64 8, i1 false), !tbaa.struct !26
  %153 = load ptr, ptr %4, align 8, !tbaa !3
  %154 = getelementptr inbounds nuw %struct.b2RayCastInput, ptr %153, i32 0, i32 2
  %155 = load float, ptr %154, align 4, !tbaa !8
  %156 = getelementptr inbounds nuw %struct.b2ShapeCastPairInput, ptr %17, i32 0, i32 5
  store float %155, ptr %156, align 4, !tbaa !83
  call void @b2ShapeCast(ptr dead_on_unwind writable sret(%struct.b2CastOutput) align 4 %0, ptr noundef %17)
  store i32 1, ptr %12, align 4
  call void @llvm.lifetime.end.p0(i64 188, ptr %17) #9
  br label %157

157:                                              ; preds = %134, %133
  ret void
}