; Function Attrs: nounwind uwtable
define void @b2RayCastPolygon(ptr dead_on_unwind noalias writable sret(%struct.b2CastOutput) align 4 %0, ptr noundef %1, ptr noundef %2) local_unnamed_addr #0 {
  %4 = alloca %struct.b2ShapeCastPairInput, align 4
  %5 = alloca %struct.b2ShapeProxy, align 4
  %6 = getelementptr inbounds nuw i8, ptr %2, i64 136
  %7 = load float, ptr %6, align 4, !tbaa !20
  %8 = fcmp oeq float %7, 0.000000e+00
  br i1 %8, label %9, label %63

9:                                                ; preds = %3
  %.sroa.031.0.copyload = load <2 x float>, ptr %1, align 4
  %10 = getelementptr inbounds nuw i8, ptr %1, i64 8
  %.sroa.029.0.copyload = load <2 x float>, ptr %10, align 4
  %11 = getelementptr inbounds nuw i8, ptr %1, i64 16
  %12 = load float, ptr %11, align 4, !tbaa !3
  tail call void @llvm.memset.p0.i64(ptr noundef nonnull align 4 dereferenceable(28) %0, i8 0, i64 28, i1 false)
  %13 = getelementptr inbounds nuw i8, ptr %2, i64 140
  %14 = load i32, ptr %13, align 4, !tbaa !18
  %.not86 = icmp sgt i32 %14, 0
  br i1 %.not86, label %.lr.ph, label %.thread79

.lr.ph:                                           ; preds = %9
  %15 = getelementptr inbounds nuw i8, ptr %2, i64 64
  %wide.trip.count = zext nneg i32 %14 to i64
  br label %17

16:                                               ; preds = %48
  %indvars.iv.next = add nuw nsw i64 %indvars.iv, 1
  %exitcond.not = icmp eq i64 %indvars.iv.next, %wide.trip.count
  br i1 %exitcond.not, label %._crit_edge, label %17, !llvm.loop !72

17:                                               ; preds = %.lr.ph, %16
  %indvars.iv = phi i64 [ 0, %.lr.ph ], [ %indvars.iv.next, %16 ]
  %.090 = phi float [ 0.000000e+00, %.lr.ph ], [ %.3, %16 ]
  %.04889 = phi float [ %12, %.lr.ph ], [ %.250, %16 ]
  %.05188 = phi i32 [ -1, %.lr.ph ], [ %.354, %16 ]
  %18 = getelementptr inbounds nuw [8 x %struct.b2Vec2], ptr %15, i64 0, i64 %indvars.iv
  %19 = getelementptr inbounds nuw [8 x %struct.b2Vec2], ptr %2, i64 0, i64 %indvars.iv
  %20 = load <2 x float>, ptr %19, align 4
  %21 = fsub <2 x float> %20, %.sroa.031.0.copyload
  %22 = fsub <2 x float> %20, %.sroa.031.0.copyload
  %23 = load <2 x float>, ptr %18, align 4
  %24 = fmul <2 x float> %23, %21
  %25 = fmul <2 x float> %23, %22
  %shift = shufflevector <2 x float> %25, <2 x float> poison, <2 x i32> <i32 1, i32 poison>
  %26 = fadd <2 x float> %24, %shift
  %27 = extractelement <2 x float> %26, i64 0
  %28 = fmul <2 x float> %.sroa.029.0.copyload, %23
  %29 = fmul <2 x float> %.sroa.029.0.copyload, %23
  %shift95 = shufflevector <2 x float> %29, <2 x float> poison, <2 x i32> <i32 1, i32 poison>
  %30 = fadd <2 x float> %28, %shift95
  %31 = extractelement <2 x float> %30, i64 0
  %32 = fcmp oeq float %31, 0.000000e+00
  br i1 %32, label %33, label %35

33:                                               ; preds = %17
  %34 = fcmp olt float %27, 0.000000e+00
  br i1 %34, label %.thread79, label %48

35:                                               ; preds = %17
  %36 = fcmp olt float %31, 0.000000e+00
  %37 = fmul float %.090, %31
  %38 = fcmp olt float %27, %37
  %or.cond = select i1 %36, i1 %38, i1 false
  br i1 %or.cond, label %39, label %42

39:                                               ; preds = %35
  %40 = fdiv float %27, %31
  %41 = trunc nuw nsw i64 %indvars.iv to i32
  br label %48

42:                                               ; preds = %35
  %43 = fcmp ogt float %31, 0.000000e+00
  %44 = fmul float %.04889, %31
  %45 = fcmp olt float %27, %44
  %or.cond63 = select i1 %43, i1 %45, i1 false
  br i1 %or.cond63, label %46, label %48

46:                                               ; preds = %42
  %47 = fdiv float %27, %31
  br label %48

48:                                               ; preds = %33, %42, %46, %39
  %.354 = phi i32 [ %.05188, %33 ], [ %41, %39 ], [ %.05188, %46 ], [ %.05188, %42 ]
  %.250 = phi float [ %.04889, %33 ], [ %.04889, %39 ], [ %47, %46 ], [ %.04889, %42 ]
  %.3 = phi float [ %.090, %33 ], [ %40, %39 ], [ %.090, %46 ], [ %.090, %42 ]
  %49 = fcmp uge float %.250, %.3
  br i1 %49, label %16, label %.thread79

._crit_edge:                                      ; preds = %16
  %50 = icmp sgt i32 %.354, -1
  br i1 %50, label %51, label %.thread79

51:                                               ; preds = %._crit_edge
  %52 = getelementptr inbounds nuw i8, ptr %0, i64 16
  store float %.3, ptr %52, align 4, !tbaa !58
  %53 = getelementptr inbounds nuw i8, ptr %2, i64 64
  %54 = zext nneg i32 %.354 to i64
  %55 = getelementptr inbounds nuw [8 x %struct.b2Vec2], ptr %53, i64 0, i64 %54
  %56 = load i64, ptr %55, align 4
  store i64 %56, ptr %0, align 4
  %57 = getelementptr inbounds nuw i8, ptr %0, i64 8
  %.sroa.02.0.vec.extract.i = extractelement <2 x float> %.sroa.031.0.copyload, i64 0
  %.sroa.0.0.vec.extract.i73 = extractelement <2 x float> %.sroa.029.0.copyload, i64 0
  %58 = fmul float %.sroa.0.0.vec.extract.i73, %.3
  %59 = fadd float %.sroa.02.0.vec.extract.i, %58
  %.sroa.03.0.vec.insert.i = insertelement <2 x float> poison, float %59, i64 0
  %.sroa.02.4.vec.extract.i = extractelement <2 x float> %.sroa.031.0.copyload, i64 1
  %.sroa.0.4.vec.extract.i74 = extractelement <2 x float> %.sroa.029.0.copyload, i64 1
  %60 = fmul float %.sroa.0.4.vec.extract.i74, %.3
  %61 = fadd float %.sroa.02.4.vec.extract.i, %60
  %.sroa.03.4.vec.insert.i = insertelement <2 x float> %.sroa.03.0.vec.insert.i, float %61, i64 1
  store <2 x float> %.sroa.03.4.vec.insert.i, ptr %57, align 4
  %62 = getelementptr inbounds nuw i8, ptr %0, i64 24
  store i8 1, ptr %62, align 4, !tbaa !61
  br label %.thread79

63:                                               ; preds = %3
  call void @llvm.lifetime.start.p0(i64 188, ptr nonnull %4) #17
  %64 = getelementptr inbounds nuw i8, ptr %2, i64 140
  %65 = load i32, ptr %64, align 4, !tbaa !18
  call void @b2MakeProxy(ptr dead_on_unwind nonnull writable sret(%struct.b2ShapeProxy) align 4 %4, ptr noundef nonnull %2, i32 noundef %65, float noundef %7) #17
  %66 = getelementptr inbounds nuw i8, ptr %4, i64 72
  call void @llvm.lifetime.start.p0(i64 72, ptr nonnull %5) #17
  call void @b2MakeProxy(ptr dead_on_unwind nonnull writable sret(%struct.b2ShapeProxy) align 4 %5, ptr noundef %1, i32 noundef 1, float noundef 0.000000e+00) #17
  call void @llvm.memcpy.p0.p0.i64(ptr noundef nonnull align 4 dereferenceable(72) %66, ptr noundef nonnull align 4 dereferenceable(72) %5, i64 72, i1 false), !tbaa.struct !54
  call void @llvm.lifetime.end.p0(i64 72, ptr nonnull %5) #17
  %67 = getelementptr inbounds nuw i8, ptr %4, i64 144
  call void @llvm.memcpy.p0.p0.i64(ptr noundef nonnull align 4 dereferenceable(16) %67, ptr noundef nonnull align 4 dereferenceable(16) @b2Transform_identity, i64 16, i1 false), !tbaa.struct !55
  %68 = getelementptr inbounds nuw i8, ptr %4, i64 160
  call void @llvm.memcpy.p0.p0.i64(ptr noundef nonnull align 4 dereferenceable(16) %68, ptr noundef nonnull align 4 dereferenceable(16) @b2Transform_identity, i64 16, i1 false), !tbaa.struct !55
  %69 = getelementptr inbounds nuw i8, ptr %4, i64 176
  %70 = getelementptr inbounds nuw i8, ptr %1, i64 8
  %71 = load i64, ptr %70, align 4
  store i64 %71, ptr %69, align 4
  %72 = getelementptr inbounds nuw i8, ptr %1, i64 16
  %73 = load float, ptr %72, align 4, !tbaa !3
  %74 = getelementptr inbounds nuw i8, ptr %4, i64 184
  store float %73, ptr %74, align 4, !tbaa !73
  call void @b2ShapeCast(ptr dead_on_unwind writable sret(%struct.b2CastOutput) align 4 %0, ptr noundef nonnull %4) #17
  call void @llvm.lifetime.end.p0(i64 188, ptr nonnull %4) #17
  br label %.thread79

.thread79:                                        ; preds = %33, %48, %9, %._crit_edge, %51, %63
  ret void
}